target datalayout = "e-m:e-p270:32:32-p271:32:32-p272:64:64-i64:64-i128:128-f80:128-n8:16:32:64-S128"
target triple = "x86_64-pc-linux-gnu"

%struct.PgStat_LocalState = type { ptr, ptr, ptr, %struct.PgStat_Snapshot }
%struct.PgStat_Snapshot = type { i32, i64, [13 x i8], %struct.PgStat_ArchiverStats, %struct.PgStat_BgWriterStats, %struct.PgStat_CheckpointerStats, %struct.PgStat_IO, [8 x %struct.PgStat_SLRUStats], %struct.PgStat_WalStats, [129 x i8], [129 x ptr], ptr, ptr }
%struct.PgStat_ArchiverStats = type { i64, [41 x i8], i64, i64, [41 x i8], i64, i64 }
%struct.PgStat_BgWriterStats = type { i64, i64, i64, i64 }
%struct.PgStat_CheckpointerStats = type { i64, i64, i64, i64, i64, i64, i64, i64, i64, i64, i64 }
%struct.PgStat_IO = type { i64, [17 x %struct.PgStat_BktypeIO] }
%struct.PgStat_BktypeIO = type { [3 x [5 x [8 x i64]]], [3 x [5 x [8 x i64]]], [3 x [5 x [8 x i64]]] }
%struct.PgStat_SLRUStats = type { i64, i64, i64, i64, i64, i64, i64, i64 }
%struct.PgStat_WalStats = type { i64, i64, i64, i64, i64, i64, i64, i64, i64 }
%struct.PgStat_ShmemControl = type { ptr, i64, i8, %struct.pg_atomic_uint64, %struct.PgStatShared_Archiver, %struct.PgStatShared_BgWriter, %struct.PgStatShared_Checkpointer, %struct.PgStatShared_IO, %struct.PgStatShared_SLRU, %struct.PgStatShared_Wal, [129 x ptr] }
%struct.pg_atomic_uint64 = type { i64 }
%struct.PgStatShared_Archiver = type { %struct.LWLock, i32, %struct.PgStat_ArchiverStats, %struct.PgStat_ArchiverStats }
%struct.LWLock = type { i16, %struct.pg_atomic_uint32, %struct.proclist_head }
%struct.pg_atomic_uint32 = type { i32 }
%struct.proclist_head = type { i32, i32 }
%struct.PgStatShared_BgWriter = type { %struct.LWLock, i32, %struct.PgStat_BgWriterStats, %struct.PgStat_BgWriterStats }
%struct.PgStatShared_Checkpointer = type { %struct.LWLock, i32, %struct.PgStat_CheckpointerStats, %struct.PgStat_CheckpointerStats }
%struct.PgStatShared_IO = type { [17 x %struct.LWLock], %struct.PgStat_IO }
%struct.PgStatShared_SLRU = type { %struct.LWLock, [8 x %struct.PgStat_SLRUStats] }
%struct.PgStatShared_Wal = type { %struct.LWLock, %struct.PgStat_WalStats }

@pgStatLocal = external global %struct.PgStat_LocalState, align 8

; Function Attrs: nounwind uwtable
define dso_local void @pgstat_io_reset_all_cb(i64 noundef %0) #0 {
  %2 = alloca i64, align 8
  %3 = alloca i32, align 4
  %4 = alloca ptr, align 8
  %5 = alloca ptr, align 8
  store i64 %0, ptr %2, align 8
  call void @llvm.lifetime.start.p0(i64 4, ptr %3) #8
  store i32 0, ptr %3, align 4
  br label %6

6:                                                ; preds = %37, %1
  %7 = load i32, ptr %3, align 4
  %8 = icmp slt i32 %7, 17
  br i1 %8, label %10, label %9

9:                                                ; preds = %6
  call void @llvm.lifetime.end.p0(i64 4, ptr %3) #8
  br label %40

10:                                               ; preds = %6
  call void @llvm.lifetime.start.p0(i64 8, ptr %4) #8
  %11 = load ptr, ptr @pgStatLocal, align 8
  %12 = getelementptr inbounds nuw %struct.PgStat_ShmemControl, ptr %11, i32 0, i32 7
  %13 = getelementptr inbounds nuw %struct.PgStatShared_IO, ptr %12, i32 0, i32 0
  %14 = load i32, ptr %3, align 4
  %15 = sext i32 %14 to i64
  %16 = getelementptr inbounds [17 x %struct.LWLock], ptr %13, i64 0, i64 %15
  store ptr %16, ptr %4, align 8
  call void @llvm.lifetime.start.p0(i64 8, ptr %5) #8
  %17 = load ptr, ptr @pgStatLocal, align 8
  %18 = getelementptr inbounds nuw %struct.PgStat_ShmemControl, ptr %17, i32 0, i32 7
  %19 = getelementptr inbounds nuw %struct.PgStatShared_IO, ptr %18, i32 0, i32 1
  %20 = getelementptr inbounds nuw %struct.PgStat_IO, ptr %19, i32 0, i32 1
  %21 = load i32, ptr %3, align 4
  %22 = sext i32 %21 to i64
  %23 = getelementptr inbounds [17 x %struct.PgStat_BktypeIO], ptr %20, i64 0, i64 %22
  store ptr %23, ptr %5, align 8
  %24 = load ptr, ptr %4, align 8
  %25 = call zeroext i1 @LWLockAcquire(ptr noundef %24, i32 noundef 0)
  %26 = load i32, ptr %3, align 4
  %27 = icmp eq i32 %26, 0
  br i1 %27, label %28, label %34

28:                                               ; preds = %10
  %29 = load i64, ptr %2, align 8
  %30 = load ptr, ptr @pgStatLocal, align 8
  %31 = getelementptr inbounds nuw %struct.PgStat_ShmemControl, ptr %30, i32 0, i32 7
  %32 = getelementptr inbounds nuw %struct.PgStatShared_IO, ptr %31, i32 0, i32 1
  %33 = getelementptr inbounds nuw %struct.PgStat_IO, ptr %32, i32 0, i32 0
  store i64 %29, ptr %33, align 8
  br label %34

34:                                               ; preds = %28, %10
  %35 = load ptr, ptr %5, align 8
  call void @llvm.memset.p0.i64(ptr align 8 %35, i8 0, i64 2880, i1 false)
  %36 = load ptr, ptr %4, align 8
  call void @LWLockRelease(ptr noundef %36)
  call void @llvm.lifetime.end.p0(i64 8, ptr %5) #8
  call void @llvm.lifetime.end.p0(i64 8, ptr %4) #8
  br label %37

37:                                               ; preds = %34
  %38 = load i32, ptr %3, align 4
  %39 = add i32 %38, 1
  store i32 %39, ptr %3, align 4
  br label %6, !llvm.loop !14

40:                                               ; preds = %9
  ret void
}