; Function Attrs: nounwind uwtable
define dso_local void @pgstat_io_reset_all_cb(i64 noundef %0) local_unnamed_addr #3 {
  br label %3

2:                                                ; preds = %14
  ret void

3:                                                ; preds = %1, %14
  %indvars.iv = phi i64 [ 0, %1 ], [ %indvars.iv.next, %14 ]
  %4 = load ptr, ptr @pgStatLocal, align 8
  %5 = getelementptr inbounds nuw i8, ptr %4, i64 616
  %6 = getelementptr inbounds nuw [17 x %struct.LWLock], ptr %5, i64 0, i64 %indvars.iv
  %7 = getelementptr inbounds nuw i8, ptr %4, i64 896
  %8 = getelementptr inbounds nuw [17 x %struct.PgStat_BktypeIO], ptr %7, i64 0, i64 %indvars.iv
  %9 = tail call zeroext i1 @LWLockAcquire(ptr noundef nonnull %6, i32 noundef 0) #11
  %10 = icmp eq i64 %indvars.iv, 0
  br i1 %10, label %11, label %14

11:                                               ; preds = %3
  %12 = load ptr, ptr @pgStatLocal, align 8
  %13 = getelementptr inbounds nuw i8, ptr %12, i64 888
  store i64 %0, ptr %13, align 8
  br label %14

14:                                               ; preds = %11, %3
  tail call void @llvm.memset.p0.i64(ptr noundef nonnull align 8 dereferenceable(2880) %8, i8 0, i64 2880, i1 false)
  tail call void @LWLockRelease(ptr noundef nonnull %6) #11
  %indvars.iv.next = add nuw nsw i64 %indvars.iv, 1
  %exitcond.not = icmp eq i64 %indvars.iv.next, 17
  br i1 %exitcond.not, label %2, label %3, !llvm.loop !14
}